target datalayout = "e-m:e-p270:32:32-p271:32:32-p272:64:64-i64:64-i128:128-f80:128-n8:16:32:64-S128"
target triple = "x86_64-pc-linux-gnu"

%class.relocInfo = type { i16 }

; Function Attrs: mustprogress nounwind uwtable
define linkonce_odr hidden noundef zeroext i16 @_Z12checked_castItiET_T0_(i32 noundef %0) #1 comdat {
  %2 = alloca i32, align 4
  %3 = alloca i16, align 2
  store i32 %0, ptr %2, align 4
  %4 = load i32, ptr %2, align 4
  %5 = trunc i32 %4 to i16
  store i16 %5, ptr %3, align 2
  %6 = load i16, ptr %3, align 2
  ret i16 %6
}

; Function Attrs: mustprogress nounwind uwtable
define linkonce_odr hidden void @_ZN9relocInfo23check_offset_and_formatEii(i32 noundef %0, i32 noundef %1) #1 comdat align 2 {
  %3 = alloca i32, align 4
  %4 = alloca i32, align 4
  store i32 %0, ptr %3, align 4
  store i32 %1, ptr %4, align 4
  ret void
}

; Function Attrs: mustprogress nounwind uwtable
define linkonce_odr hidden void @_ZN9relocInfoC2ENS_9relocTypeENS_12RawBitsTokenEi(ptr noundef nonnull align 2 dereferenceable(2) %0, i32 noundef %1, i32 noundef %2, i32 noundef %3) unnamed_addr #1 comdat align 2 {
  %5 = alloca ptr, align 8
  %6 = alloca i32, align 4
  %7 = alloca i32, align 4
  %8 = alloca i32, align 4
  store ptr %0, ptr %5, align 8
  store i32 %1, ptr %6, align 4
  store i32 %2, ptr %7, align 4
  store i32 %3, ptr %8, align 4
  %9 = load ptr, ptr %5, align 8
  %10 = getelementptr inbounds %class.relocInfo, ptr %9, i32 0, i32 0
  %11 = load i32, ptr %6, align 4
  %12 = shl i32 %11, 11
  %13 = load i32, ptr %8, align 4
  %14 = add nsw i32 %12, %13
  %15 = call noundef zeroext i16 @_Z12checked_castItiET_T0_(i32 noundef %14)
  store i16 %15, ptr %10, align 2
  ret void
}

; Function Attrs: mustprogress nounwind uwtable
define linkonce_odr hidden noundef i32 @_ZN9relocInfo12compute_bitsEii(i32 noundef %0, i32 noundef %1) #1 comdat align 2 {
  %3 = alloca i32, align 4
  %4 = alloca i32, align 4
  store i32 %0, ptr %3, align 4
  store i32 %1, ptr %4, align 4
  %5 = load i32, ptr %3, align 4
  %6 = load i32, ptr %4, align 4
  call void @_ZN9relocInfo23check_offset_and_formatEii(i32 noundef %5, i32 noundef %6)
  %7 = load i32, ptr %3, align 4
  %8 = sdiv i32 %7, 1
  %9 = load i32, ptr %4, align 4
  %10 = shl i32 %9, 8
  %11 = add nsw i32 %8, %10
  ret i32 %11
}

; Function Attrs: mustprogress nounwind uwtable
define linkonce_odr hidden noundef i32 @_ZN9relocInfo15check_relocTypeENS_9relocTypeE(i32 noundef %0) #1 comdat align 2 {
  %2 = alloca i32, align 4
  store i32 %0, ptr %2, align 4
  %3 = load i32, ptr %2, align 4
  ret i32 %3
}

; Function Attrs: mustprogress nounwind uwtable
define linkonce_odr hidden void @_ZN9relocInfoC2ENS_9relocTypeEii(ptr noundef nonnull align 2 dereferenceable(2) %0, i32 noundef %1, i32 noundef %2, i32 noundef %3) unnamed_addr #1 comdat align 2 {
  %5 = alloca ptr, align 8
  %6 = alloca i32, align 4
  %7 = alloca i32, align 4
  %8 = alloca i32, align 4
  store ptr %0, ptr %5, align 8
  store i32 %1, ptr %6, align 4
  store i32 %2, ptr %7, align 4
  store i32 %3, ptr %8, align 4
  %9 = load ptr, ptr %5, align 8
  %10 = load i32, ptr %6, align 4
  %11 = call noundef i32 @_ZN9relocInfo15check_relocTypeENS_9relocTypeE(i32 noundef %10)
  %12 = load i32, ptr %7, align 4
  %13 = load i32, ptr %8, align 4
  %14 = call noundef i32 @_ZN9relocInfo12compute_bitsEii(i32 noundef %12, i32 noundef %13)
  call void @_ZN9relocInfoC2ENS_9relocTypeENS_12RawBitsTokenEi(ptr noundef nonnull align 2 dereferenceable(2) %9, i32 noundef %11, i32 noundef 0, i32 noundef %14)
  ret void
}

; Function Attrs: mustprogress nounwind uwtable
define linkonce_odr hidden noundef i32 @_ZNK9relocInfo6formatEv(ptr noundef nonnull align 2 dereferenceable(2) %0) #1 comdat align 2 {
  %2 = alloca ptr, align 8
  store ptr %0, ptr %2, align 8
  %3 = load ptr, ptr %2, align 8
  %4 = getelementptr inbounds %class.relocInfo, ptr %3, i32 0, i32 0
  %5 = load i16, ptr %4, align 2
  %6 = zext i16 %5 to i32
  %7 = lshr i32 %6, 8
  %8 = and i32 7, %7
  ret i32 %8
}

; Function Attrs: mustprogress nounwind uwtable
define linkonce_odr hidden noundef i32 @_ZNK9relocInfo11addr_offsetEv(ptr noundef nonnull align 2 dereferenceable(2) %0) #1 comdat align 2 {
  %2 = alloca ptr, align 8
  store ptr %0, ptr %2, align 8
  %3 = load ptr, ptr %2, align 8
  %4 = getelementptr inbounds %class.relocInfo, ptr %3, i32 0, i32 0
  %5 = load i16, ptr %4, align 2
  %6 = zext i16 %5 to i32
  %7 = and i32 %6, 255
  %8 = mul nsw i32 %7, 1
  ret i32 %8
}

; Function Attrs: mustprogress nounwind uwtable
define hidden void @_ZN9relocInfo8set_typeENS_9relocTypeE(ptr noundef nonnull align 2 dereferenceable(2) %0, i32 noundef %1) #1 align 2 {
  %3 = alloca ptr, align 8
  %4 = alloca i32, align 4
  %5 = alloca i32, align 4
  %6 = alloca i32, align 4
  %7 = alloca %class.relocInfo, align 2
  store ptr %0, ptr %3, align 8
  store i32 %1, ptr %4, align 4
  %8 = load ptr, ptr %3, align 8
  %9 = call noundef i32 @_ZNK9relocInfo11addr_offsetEv(ptr noundef nonnull align 2 dereferenceable(2) %8)
  store i32 %9, ptr %5, align 4
  %10 = call noundef i32 @_ZNK9relocInfo6formatEv(ptr noundef nonnull align 2 dereferenceable(2) %8)
  store i32 %10, ptr %6, align 4
  %11 = load i32, ptr %4, align 4
  %12 = load i32, ptr %5, align 4
  %13 = load i32, ptr %6, align 4
  call void @_ZN9relocInfoC2ENS_9relocTypeEii(ptr noundef nonnull align 2 dereferenceable(2) %7, i32 noundef %11, i32 noundef %12, i32 noundef %13)
  call void @llvm.memcpy.p0.p0.i64(ptr align 2 %8, ptr align 2 %7, i64 2, i1 false)
  ret void
}