; Function Attrs: mustprogress nofree norecurse nosync nounwind willreturn memory(argmem: readwrite) uwtable
define hidden void @_ZN9relocInfo8set_typeENS_9relocTypeE(ptr nocapture noundef nonnull align 2 dereferenceable(2) %0, i32 noundef %1) local_unnamed_addr #2 align 2 {
  %3 = load i16, ptr %0, align 2
  %.tr = trunc i32 %1 to i16
  %4 = shl i16 %.tr, 11
  %5 = and i16 %3, 2047
  %6 = or disjoint i16 %5, %4
  store i16 %6, ptr %0, align 2
  ret void
}